(lp0
I0
aI0
aI1
aI3
aI7
aI17
aI51
aI205
aI1079
aI6993
aI53227
aI462341
aI4500255
aI48454969
aI571411283
aI7321388397
aI101249656711
aI1502852293025
aI23827244817339
aI401839065437653
aI7182224591785967
aI135607710526966281
aI2696935204638786595
aL56349204870460046909L
aL1234002202313888987223L
aL28263671938642294567537L
aL675741743408210139507851L
aL16834429858208763968448165L
aL436284579099614953381388479L
aL11744604178759373303562328793L
aL327941268390132992155247269107L
aL9485899926341208565550548209421L
aL283896718396483342775254329149735L
aL8781146191044548294710520990090049L
aL280409232597386143413863799811030363L
aL9235354937815614234051211479911970677L
aL313423099682637983172307168803532910991L
aL10950758810813605281777214463650353851305L
aL393581421311845790048381569909332374791619L
aL14539965175039223021130965506935916795731933L
aL551708966395367712012220773544036792416672247L
aL21486760048813139559643592321484035024837612561L
aL858337094379128645752886233465539927529258552875L
aL35147714041873251260116190928050347485185679493189L
aL1474443208742247272417622101867146724979226100433503L
aL63329001766816456930930260081320240609737778521373817L
aL2783455135113339434633068709075389224814134858942314131L
aL125125802133940056974298368653727173273402265699363254445L
aL5750090308944855724364269097398633850283642149499784194759L
aL269998296326923952034718594979755520496491514422420205135073L
aL12948162094880975719207361968235487445664185741373100626075387L
aL633908189927702588358632168662786596258384711347534021047015701L
aL31668961419473902244610665141422106549448746805914206941467956015L
aL1613822767936402382125105714583484637565898828917466991861888896329L
aL83854151745397209433666237620429314143871854351912297600782309836643L
aL4440977764782883580783221122915674793340521598241720852881702730776957L
aL239641798717061750424225518691238501355815735913939470540450623151717271L
aL13171245973327616543232768663826078287498612001679073982503859543572657585L
aL737101437952801623190086959272685867810139387148612667181914308463993597899L
aL41987951134809492385517543055313867792313164958522148405565806037384414538213L
aL2433800132114544754977319909666429733545678508711038608564649612006304835478527L
aL143508730858784115755508141996666951945201920625150987609545028358135225256418841L
aL8605570774326843831032380147307031854911030769102836889059803103513864145677359155L
aL524647846695019702347166064329242623983881388605616525889916000659655193066098299469L
aL32510663383003650086516422103461942304125132543700362407053940446036903721986519239783L
aL2047104994323752344586832386504492779529040073926063736394497564504143905850906940180097L
aL130948631511148665142520537686067004419619471189853619309183835563776955138379827361120411L
aL8507500750110444244663624549771125768245968453651218667804096307952005541346908747782060725L
aL561228991946152803827913968809698937176365381824911458249159135650011315275971437668203001039L
aL37585061401330880451661023409675091175752120109245696291532142675260033061954467966588623941353L
aL2554644436247546207700484551419712064461727076192034153496525864233091500520816260495509044881667L
aL176194156239235072907417646960702588130018246925795192004349560509048202722120325477024429465821981L
aL12328405338012114395679918531059084200654512909321824207410565459781872896733565154373553349886762295L
aL874959205087647311239620063655083476101763615692514089109247544747643377968824027680550082270307702609L
aL62972048381723369369607630594053780608780964503173035337834099488013889870262603764410886611190728642923L
aL4595184599071043432319232779249503587818260865673558572405639043801702240429739700518044903140111149583237L
aL339915941301699004721221886149158735540710992587778915280085370823526626291960782256522551239669031570523551L
aL25484377509399725057956601656113101628419847610880007109783659615259094227916359234256342481576197951991463865L
aL1936123540743548006099124242287223602751693519608501570976775216821538705325078680803986134635912726872412404179L
aL149029854732263565921211075969226619087615346415814481981625341462089809665578661082438923788038249255792833344493L
aL11620404764130081415293844186428212243304228578800272452441236733376193405860033009729160074618784585784713254284807L
aL917709992751825427949810648836718849937329058590756637636768911353128287695556347891737692066459706922313633675225121L
aL73393256627003323069295861176673541653216011230968465579930541644199919637465401505442691091339114709258842554096165435L
aL5942994824008622806590376143282619469868851938134972133268089364093436890681127302919178178740357710191595371474517105749L
aL487176930092674417132249663414793512041897781933032304418117182263286668596623937817340045474868543425033931900394938046063L
aL40423650562567926723355380130806914976050430119571375911927323803532231463299196083211352852874767600046756268429315358986377L
aL3394600258760396446028966089728330324440725248699259206638282562807860307549718632358491088628991419812846398604958235779926691L
aL288459188305013252660282521025387013213962034397853153442466550554372214543432071519674057276746032090300769240941487156200867005L
aL24800619160023998490640059279402305411388353895976388798517059315266098818521764701196454258366182538332449287283278016076621807319L
aL2157070077511270700942220354737168819039346483818911136766564163294631941150093271411556657695870412549309069587725614544997042747633L
aL189771981793260956518190646295741219712888273563141192569156192254163559967509864097222058105937876470976919206739367951073917463687947L
aL16885342054417471723552358334690364580446403437139005328915066528178203522372379374322945130341780545258484912343647810287602837884628261L
aL1519296876608803179800109259643910725826749879885403636407477840569087636578843125430540799573461682859663227375458668252624131758305568575L
aL138221861179003485143043234920448273234659919833240346059227775211763667841195308637172042608767031012925236306606581880694960660678726508889L
aL12713338480122705422581610686454805713321484805662009645322287655521095959029331292591959668255001947696098296368494458757137297189599147449203L
aL1182060962180707982119225340444229599368161539267904314130727628749077235371684782491750036810746082168218267645817460426385579633718519568389517L
aL111088024251555601286181154326988605397209805173913018926113507403887833244202267863920017328536652620949606088197651766924702021970247439989329831L
aL10550972475779989757189945182708260076592797788925931002750346858413320576847735975817113660005687027723013230772976093423838378464306776360410270145L
aL1012668791798258113122665110752983332705972034423945744430950635047914976129542769671459783339683586384900171594423508840720626614906643305280831210459L
aL98207546293602856089816566225886957117679165190231941715963628242571162244164113302172981628608434137003361519637752209235085247171348979834201252150773L
aL9622292872678655199692696210398263404712346122424991601181735083144801479535422482717650662681606304511227673456289541339042097435087791316363121673091087L
aL952408532638505234360287964417237644759466695723475965946577145490223031729125836941547768105299787037422431193665178912980701218791644233652892042094031401L
aL95221410216348484495220122088890777516830189309706148408884936451114901255208631860341841861704436254024031555541097826535807571257012200675989420962514971715L
aL9615438171738417884607703080696301066951213706626232589179712649173717178794909614386829997547111919632634130683438130057528340743898496757118325949882935912029L
aL980582326436773148211585744736563259811741502283602223399395254410428034586589201200228280035596970787996840210173394319792230916782072909313560662478803356852343L
aL100980556379563611954005716332210163709458190012005503044262416343170449010410606324927510803957185322309877432266955443732409067907970138905870002999007723777792657L
aL10499997275578318074608383711684728047212877093520799586190617214319802202461521797991364665011766776909797462165962115188324767884074746929638426445335536644198732971L
aL1102295772235067973041364067507366895651362403771932172813513608585522965865817786316642338346027816708273683981771686932926790034513678339817650982887672065564619673285L
aL116822147920665393081442858166137991933643999354590016935323560076718738511979120303495654183868717342655935857597812555498015783529367584439017343539330008594485040613599L
aL12497744032030475111707361362652107504103204790688353154351085018558387278980236671855333279316450468802347514750532413805029611297444221858713566796095772345123405461553913L
aL1349520485367969259330225116988970676826482126255380181978317998974501870911040073119150301139451410909106382099329871536198943911016719115895925890328652214681652325882494227L
aL147072501546953266264036953118895042625461681361116101170636360535153783199526582009202446464614845648433443804303727303463330572969120238344093355588581208657018181246303434541L
aL16175250897835967967522446808211573986298507115069540029741042721515900227476325154905245874145768760365201453864688114943911610825449490634329914696506033765099354710166724374855L
aL1795155980384369646540941903770380041691381088575343479999885512429843601759001440164356863900289238448278017126763051415730207388277801484350411990182754686321541691239087145315169L
aL201024822431978305678796398636725036850674331705010955216626325077041030273062337996068032836954212074734148171037515052988851422852115775289917274529946097738877984027768007566255483L
aL22712181975481708707677122067556830876224056370273659737975414110365675280528580367373019060928147203336589197545825728179335818562877529013834622329533021107991434426364296927987195797L
aL2588783072600718996229807451925812171527938934435394610017260595308192938779384573378349368230487193995113330678100644509529901221102922522432641081325353626179043990868700825848408136111L
aL297664223312527525352567118263557619515598925855554030232397081018947962565867295189273256503668849427846102011744358978636665586694645219236581549243515190188242096547311037354768829076425L
aL34523826508071436343691465364960921459256305469770880367818438989565853046369285542059704134846288381360565675684752225092874875200404448715555422254976210877761377149103753373883689250016739L
aL4038687149601551240563989993110288933089403372182008507835152945208534799888803353130710843644429104768060909693414928201480108734417756812565623203276458091133629936201660195710412609670957053L
aL476495435448124096702215524801694033383987500938756277668612806240057304674249654043049485601640355150017340938109890941190080829246864931298158065941556343750448358527254216638046941530091897367L
aL56694809795822705455398184177030049334107771707988912299293318395381852384923302082790252970959511125429913603409977121558632086461493660938271093128593586279117767430926306773080383470450512837681L
aL6802416037605324344402212206919630991387577889053068878616589376286157204710135343878411621728302363203867447759095934904710482681501862316843725142580895622179445607760285359329522719999370933777995L
aL822977989792759199951511310774597314930523354316099755890710119062674592983675869099065806988395827953569379166993686849544525772594924976020465394033180848379839996520181804411885965056528291354718309L
aL100389595571883926699674419123824355124513700500526742502487504151425777600812785251888049630100105647614957941465854682500697280659351042985545465273543794189192247762227846843464442407393057211775658623L
aL12346260580179304769965640568818169968388313966130119700578002460013024772970809563465833994065852017638012181725058763460742941605957758633181099985059316054260738562947750464842516998849729586132196598937L
aL1530733873075927605408245768711793201657975033203699119759439369482699874421249597276743243054468988998799652972949113597280280540662300948774444314973221532508943289398190327249881569555292066115052617539251L
aL191316839174464285880423296146014853992887926623933694007416532244858543055683127251872953541610795259626366739694230909061261737481099241957799165088508439273290001405240564674914920622111734402643973038479565L
aL24102835373276321500926911397917488720486203852022709350732450795172732084020258462133718707916653436369701020013602788023925645031435491508146139538238972653079194380711981542153459959674668176739172893459419879L
aL3060674372365037723525950477026748654911144438451043284060804385654767813243465642864876256560005458062089555619060295310702641061626162210072107567763259419367155760551262845117253764998727224619075701813880360193L
aL391717728271937220861228039966119220438594912263273654137599279596887765469568454587953787382919455796717861243277023335425554288740719746694751024241027637626115877036001061401187939350037779781061412230734301300507L
aL50525417006944383807901271633582021331878889817226939410960001777460289695322248562861558446426728544025250319395535195214930714198282165983008259167524369166877333765808473812289189126055076832337503748759654722240821L
aL6567514605506090502902245710763683176598678632550240214143734727220105652810701094183842210334738990557937752017945820516215175948149929456957069566770117740331909543429193930366328155458360115884893946085288575143181135L
aL860242572881887287720453465965173352495217566040757752264726263758429187931230007621969446049257218585836450224208637662372032370881617442408576092603542324993784251675566880265133143555864265154937450388421817495564121449L
aL113538782750758699229934312293836486019376312025291599102727476361150807943029767768195485310576689786172042158801362014966823686926151179222565330063890703564709161503574312282523986448253985370193990006830758346415985061763L
aL15098924383835492800256657082934755897362066657539612740962008513050578753183204059916851125846675964056551564949338552558796521710406121278541005032152479606121860551754431883902686342829548228075233042563273094875336406002077L
aL2023027056146439103638607574036524120531263196644433354151002939953072772607423529440068511472373402026501235576722520723417009233169795963407989359781959501845215437683865772168721918111474722765180272095119715431404256826942391L
aL273078225919714091074015724705688153590210553678217548831765566675843018364176684251700625807127634744492477025601152775236716928758477018529604976245973755024516726489967142278735415520535743737046285311147676157767933177247882705L
aL37134562244308768319941665047036273237346062795975516820433195231816922546044988718949696349504770803917838683233346944868322088974967089491568987203408275986605997014162808881399637023532124854956511390350200232600104462097668823019L
aL5086884794537689483583735606481620741558307609437027299480997293789468974819952060788323409870274757345921776456668919308845781342376788521279434747348397707958244279698852159998684421905599297348286184495389252789042440991018089763333L
aL701915282288779919421667357859407241096613654983106197789818409699513635266073083017642946179387028129338547350507544558592866836222853179018513340660153531044057721293171819805302585098607336976572824561600428305345484777519938510703647L
aL97555975649193912191331707115409586849707748632313683868647237736801383280775438333959647187732345472078967580367122589499762947683266694669612746827792718667053926781886215470342546094738243275091435372794705467357901927114048858931643961L
aL13656422511733623650339315605814575324814170031803611451590896125121363620016820500382822598058967140596897693655342721336704981399433181650173786921685691684177391537543619154725751334859188667274195619300867810506410458369450577779352584275L
aL1925359048123989022817013713615281534790953644210324283016559342008607837616518398810938539023715340907724259102646535022103141020148487923681592732829821653102467940728166077374268048004551960207872794117786380915545463014811787106699773524589L
aL273373475462552522080834438915353775203657944807528456033790487761338565781499725698409467448868861448699212681485740499009600353541114828110492909264863442482815548534259011525394548423766066330305599585283428374020584515571254123635620194464903L
aL39088528763677708760354509229050343088316846727517810972111445692383513943919181851142188163017701039521974332823165530814199598603019152986900829580612841399478683605468441744514920374109658069294072657927852447007125623568127696460164540615405217L
aL5628197516791197654549682844569573450401412373492990964831260004670215429829963908189347910857480665820624892420543569595702549746174315533024598817345456803764400868255456496283481244724454340429746223459672507701800230662620684138796693461036345531L
aL816009912252017912085241936959716373667711946907759080463435689610763459719362530045378035513391592858041026040807178993473699121545409271485503906213667218505278638958898255962689083355150323624626014017054719667199793335701673240581133222381457285845L
aL119126112066078327021311761354926579631944648576537115156294851152095706910561287222166737077572514492256398968812835407310065496054487538525014458187259298970122592999324491521561623510232602784776851365658471932446204986440740725797023469751301878226159L
aL17509895118766293748165524873859095762224986621185144699223049488447771630724604854433961138224750189110956975530260177790855585946075435129522285233594753499239362525334107803308642295177862964250529352042929747491292768579545779778353465806280222299166473L
aL2591224581998332097750487753763121208206363253918682530025946440957055712648292491514557365770929473518186385907655654015148282547053121191058593345535716635840116749917882713456275020078476923858397122600913420058268137975372650818830909908142809142720106787L
aL386057203031934870600348334333389316866620740094624607799008508720291191152635182999018510694905708499361314339818809075603614044166056863389360659045318282351131608108882290847944956667494859134121988987330573546616526781018965755857883466350479338063141047101L
aL57903362745940417313892274833523555544420570902946594715616366904179454451438020466633096952699351632902312321040584166659858330004469565071943611920667167423009015195203625628307790928759873713749802371574178679110297055099582558860896936022792815866983561987415L
aL8742630442522089331380372827876905266588200424753499456388238476109792815563378563112379923184675780509248553018516334352806716825966133247700246191766521069379998305238400987293896587758041585901583418153200912045679440304421666151965935988579235152395903982927729L
aL1328763243205750783852171524615637401789698317639134587835911182708458844250126903024799264413492393618080974826713789778480469349882134543442130294716415646999419361376609196334835085914880101964738543214588890205085078917146278789745070975041135677488924824403868043L
aL203283174365537218956201837375315116464558958051014687610446533411781753920922782767099780211507388546986045846149072110395660045490649935169942227472795965393226061912991102483521343156376797298340891808651096151128067519433645997033338176014093692119825453744824808357L
aL31302933723961377566714198206858419254729235258673210718504646445506360736884261658931622046799553903772034555054965539695662834301819009097107515062602330210665129595500246459513908750921597165438303756142658625443062278280057456327756931281053146248562161982665245748671L
aL4851545485736951094250247433639364245569289502897062580819495186286754321342280864681665473587735256375107567436575368943301679183987224029262261362280207342262416951239611835696740435611374377429834206836105174569541736878657314411592880524386092198805004498511585666688985L
aL756778080666039385519314717962903414731385962019227131105855514755075929815047266674569214691926905287999678662398703334366144566900608588165929154013163986892125035998125519510244564717091086501510156783554115003223491912259229341976624404117491131251361446835040506087629299L
aL118804392558487784639160186343623719976759034257580150826955691091868689728005387757962232776497588864996682233004016218536809176259226175533593369038839637168878293809407973412578556236473794515604690967121445552927324127710130380355274980727710596170303917889171569426508569613L
aL18769570701973657495328898588480069833362396078994186867640123856761064593912264138114738506327100251593680526140317184917188442039079765144322962941687409235935800834972165814997861555809315845227405748843724738629932001091861513011114438655451303701209356474331508098346929509927L
aL2984122609506427153710358144341831378141701927157857074690106906507071344669481400057084203768096426036589415025170106991784261258051286235006299131623771135802707606586041254653645279931654728113888169260256526892320748314264221220921466187955774896806248409030773844627267350450241L
aL477421839247517012890619708566289560637642664503696924939417152006699955092166630882954083907144861451384313254343796158905598723377965241647778163157815479977250260725922123303022234358511111375254382925337461146744221426420749912973566631637352098489911287461587216181156187771390555L
aL76858910095357714889379314768355532140039155937399328994085781306231247167094538216229313951947035934106331261969617420410037942863426060776869041972243056832314503605332445291835711430729871976836760150484507148416007909853250682063928516802802204422083016326514143658517685108192330869L
aL12450182585745962253867657294745646540442446663481988027270857357138601195556386568411456658490502244842756352640589600752934572094827839572241066000880894340430972295170863276470828339008531821070225440112144659024889981213573278940605656877899870928745676121365566700100854214028613271183L
aL2029225082806699144392437588716275725361594831237312546517390538436508671535843892952017284504323054261018603506093677266534023600922163815880128301261018810510179877816747056313354790922759519651315743513712264907741731621810084634400843451219919270789069269226404619256543190742949034211497L
aL332767858536457275052864038684552463005490143454682042150869747378096061606147438553294961594562371082669014780319759464853879689756510436090801393817922756168008569411060071851085853826318912991990510482144019841038278870698424373650939236066433200976953392862331443671812985527271869455151811L
aL54902613153305995600806285781908807088501339071491825114322491235383485787145524713616928755469635972715727365351068520739499380581827653197636930075765848401344732662518391915932234839875761476408306326612631057637669165086717971976745373174125404763223277716455436482724369427863800789876092125L
aL9113164164226512900400821431118450522457806770982202893052660788496900084165076004935626843577137291472720744545315043132865798648975880841178203489885303582744512923548924417961551880670256908090524741293791335312037357998075264449716770467655848250895136162040048541521776925870200329710297032439L
aL1521787940580298760006402544416539008182043312560999459413640833939934788527492320677297665690040166124000842886233947734837218277090200935580735182048002339369652256068916212375664100499504032631171561074486022314739147723942075808260324215872929438150161364566363641646560829482312536858630717972753L
aL255642037214316209760914291184536074244469950478512916351979401262593003146922304349629184565052251872697252641945378924898035568856567034250985129376321779047987408591567071664851730716582908097200695140309487035523181651844536091903992658273491236692975992600330687234751599882038754873387551138913067L
aL43200442376535104870154341068820320990168944218211825871736179272871021620927118044921820772891575990117452805840054646117743719598511061663618747013026542040465018577034686426920931324734178690976819008469950172245435225700500982736274496789795112233320391310079935010827856638934595197209916471559853381L
aL7343560858023854860927275978975719220623085099782396515370698178045041293640413471637844761603835559239853199596876684689976611969070918581621887282104187664702312329803773409748789610577008878872414731579368557170894959532320252376187356206490197190423288019289012339334420961677987151639546445391980793695L
aL1255661991491338998041824921719986610736861578757039766593821463788813286787351652817982745822922365118954548448058300367543725338909254093432822188035679713097837737530999060411361412831391248431207320962194560403767718180738597239673586054068469157448674432012376373543658014066717039708081882974312401734009L
aL215959088499563519770295292713194884232309259402705525023571982450662906470412044406917667883608105613830642277983826297133698529760651689249257652030368565899932428559806784651278983817200863442553938777896428189461250417268685918802449974730122360124677447910804113488347981607171756092264524219503232822674323L
aL37358396212404559454372103395716632186153597221367036434714200011716092213950696539213345213974621885275833664939223631437310935969383183717113520392565922196509218803075986692810966298360288161777355273506556651456001989641302833951923091629633377028297806585309762257975952305200276795144820966556032153243614637L
aL6499926496683374288555316418025601527836225393343757909195859905121450128809049786591124820565927411440850528965716965899531016551933943104876245979593721885356625115540331483927945280045040277208590233577515539071644629364205975905796112289608069566930297599044817675285330756628793381834197377408892561073664554951L
aL1137411985682890672321766199374859741634412636117540793605961644099313190440737439849136419661943690961781146372936882639184492188409762546124007312819403449516180397825756967513383639219415678072239066581505580905953198417923382460644577298844204769422751963472873392692814445560952386486873249933851229089994085495265L
aL200171434475958691751878326283359642798864024698182875318327543802371938035211325041070517186923864148410232364382896324171438127418835662734386198830646321790655807769708344577213657827268602889720394313583267569938035020574974237798764270020163615874480434859667657778102653320365275979591912302490293565618914506435579L
aL35428056003269092592161067694949291384186870947047629545400441624172527222369164593017405776572621841425824316805772780592741147071015810233510670090173191464722853672195100594526648805472755323673371633966313634047710564343955052250185305304394855176700267555522671620602951319715169599572696951355046735902147834927375893L
aL6305791337813970968173244896991201781708453239100550953944698420386257795895777634967764011430039937932657121115008789284073977900903858448168954816550315580584863417732145212740948891428542123020273571897838735599521282748885033964217190845153069789387815894598677709345647911284669973923165801990407603178238676755348316207L
aL1128665390725926337604595089273325448258367946267630598391873636177175348361213524667454389017624116896421633423676542970626622615689911674828379946362825630041625301530791020186356003672152486185388036047497035953785242993217394204154060997172761488158000812867767906790508092793691864778246758907029460159620575205675769256521L
aL203147087489248338361192353832116498612275368238163938586265137733978825392322512212880079126121127929486504710763637686823001303439810414764818189469875831917448319298463656370224324915311033875288565008083454696491615629594800159804361728945297123724718952452143630463690402523715702259582570352012068512716062911734596190196835L
aL36767352821931078988292972091197457515851094053125128053792934065799900308000956361254697702152837693891395120075872928181132191909989931562378145333279367144308018307441781493706910341918276412816778208910544294217885130361488063339237795566558633927054093198348206985355780786427805891854386893945117107565272505248263516611137149L
aL6691249649402855008937515691937857406154703819334314433082820413836063631317379994374652625013889131571029276611815000160458581880998672170013238867317136910167474307830227164232613541111542664346292604834150333632415013195936467161836318392283240635009275486998979593945252540254448504695849191217538222146617828947584792437032077463L
aL1224424742570890003110656980451785430549548901451738832125341056277728526505725742994465218625359478073393370194479999410739050742792317531874958372845029787916262597272192510423958820061610887379759552099044121238228271564065796154123462829795869488199128736459316175200621003742115808579935043995541131327185670385389921321357453017777L
aL225280696190475122398818100980571801031527926561994835773067773634820105631765547155016754710063933954237133069805614115957039549768593989045414849785876840436127597748407022403049348206292378772351453006428844617350233461910924042087900904609663455799362100279878681187235013972344351613919251038799864724432224722941832257850277873958091L
aL41674466489310187225601584584022322901781978244861016031015292459608882141578326782636145845407574852566455584127670945677611892818799110901518419802823916780567308338111078360028322425838922826604734982505342892276832965404515633743682604171055371053876312707076001892238397092160015859793112775033604188317537263775498274594379198294898405L
aL7750997743313386163298917332328807455840334209521916963510296016277149600722006951034971139960434541780484850347820817002029457561308706662632451926218113468804530798447819540135926065517301893744655720016296926912323270873267080714198209510825347320840389763470875040466567308621094572029509188987028408511910642302828054716930908118715838719L
aL1449352776042926283501783360576019604992447819480086518126104776077697655093120581359438978893625069782448658215574311458594146985676102619725415499206074435780505136140625190813868775701195038532593585186352817795768730326678162235125451058451006886559864528743594219251973835367439696559906622327855023212835503747341880611159267437039136779033L
aL272462736098626837596973559773057560734418814716136709619730356731608475538063330563188357465442616060486284766027806731260910212813696049568865995935892844916911414409671523170735508581143092224742447669137602444213860933547125184183726788449694310916175562267243312055974873663116715775708774383246051018017159096852380933167601603965959557719347L
aL51492542831290943149559637518371492814591009710364758389304807871550847797764339896547494512444308288233728860484324159762440052507323789920336710282970486391414872761970870616185111563033960465379872275950737429019437518611884934170234254104336227765626982570314946388977350967272362455038284874574457239012821482689957419985724043940494879978659661L
aL9783035298181732415584868816092301133486608861068886740819849805330474710545218824103002475600963343385089331962194603428955216178251427929316658258823607367381110617384189026765745826400488118272629797201785566875867718616562521516335650717334327889849764138537111287691982833879365936199152035136521336907007625806283062459038280486277023800399599975L
aL1868456209027284762707579362286194491009027427460836220626664639512113381647511260967639356368995654738596275795528373619685013016142867994764093737319802281150021582967465885980715657248791198298991985585760287253794869970806522223775759960940158399120154333945624897530177052719121966158869840050293800896255002430129876167498090836928613552720820540289L
aL358723922529716884846354937239729722645979377989755095439968044413409101038834446133702516301425175439275758987468272550137419155393170997399111976258768884040049611163565767512112332904521407064878835667191790825575367434672662222536068891873005045747448781972767942744799618487851821842975442786925354954954162997234453469272537143393370950081641241480603L
aL69229960466213782416227587428224044462064248009085086288552227676136015605494265365310566127340898878200209566064512370244440423621143457104443489209161121861226520378636070515469533745970887478116489674231569924434385077552160005860584867590940588145575753761931529662370271638415743776102415151693761863887234150992038777062377576195949813286610561662420917L
aL13429891126018392778619340335741941374186562383063589582656890628185908268368809029239488404152697372038382092380023599050389085870821305790873653560415958830551361799657138425851697175547941383855064113520053736053717893472910032009419515746318178704466519471091958535326967043885938931080590743236833119241794597658986843100655482615248506255623139482083361231L
aL2618689588448227083255810098669488596626001634470682881288194326499915361541609693719338856252969868739395649031535980989308350507651231817418765173956532350903266514738586461645900617793186217289881734273781144561339567645490142912697550452230538670798904968596685293110260967360514544711679712304687314046069843247566981647424248587654301062697959668402504301545L
aL513236160372475112024006579391748091084607569201261000465990874866730702294828454283949575466216982759369381587013723605880818400090740870790694629518034929238324885128969076674349637361674740353487254021571434892581312401147394877495561794487391436942604374477741886911261998062375835338778026947605744742585125584031874976451747841692693353619140296197322925241859L
aL101102259215237323218268652320029563292620350378224482881771130746965695812790795228865586848772874552344737215720473149728518989817451748516708621140127522583709480485617637062115339875288547718967079712884935442107954621033377137447407120318961857857817482962810749920394043944813033517225136752589609370850733036675292982971256071434797732406175582632726243346182173L
a.